target datalayout = "e-m:e-p270:32:32-p271:32:32-p272:64:64-i64:64-i128:128-f80:128-n8:16:32:64-S128"
target triple = "x86_64-pc-linux-gnu"

%struct.AVFilterContext = type { ptr, ptr, ptr, ptr, ptr, i32, ptr, ptr, i32, ptr, ptr, i32, i32, ptr, ptr, ptr, ptr, i32, ptr, i32, i32 }
%struct.MixContext = type { ptr, ptr, i32, i32, i32, float, ptr, i32, i32, i32, i32, ptr, ptr, ptr, ptr, float, ptr, i64, ptr }

; Function Attrs: nounwind uwtable
define internal void @parse_weights(ptr noundef %0) #1 {
  %2 = alloca ptr, align 8
  %3 = alloca ptr, align 8
  %4 = alloca float, align 4
  %5 = alloca ptr, align 8
  %6 = alloca i32, align 4
  store ptr %0, ptr %2, align 8, !tbaa !4
  call void @llvm.lifetime.start.p0(i64 8, ptr %3) #9
  %7 = load ptr, ptr %2, align 8, !tbaa !4
  %8 = getelementptr inbounds nuw %struct.AVFilterContext, ptr %7, i32 0, i32 9
  %9 = load ptr, ptr %8, align 8, !tbaa !9
  store ptr %9, ptr %3, align 8, !tbaa !22
  call void @llvm.lifetime.start.p0(i64 4, ptr %4) #9
  store float 1.000000e+00, ptr %4, align 4, !tbaa !47
  call void @llvm.lifetime.start.p0(i64 8, ptr %5) #9
  call void @llvm.lifetime.start.p0(i64 4, ptr %6) #9
  %10 = load ptr, ptr %3, align 8, !tbaa !22
  %11 = getelementptr inbounds nuw %struct.MixContext, ptr %10, i32 0, i32 15
  store float 0.000000e+00, ptr %11, align 8, !tbaa !46
  %12 = load ptr, ptr %3, align 8, !tbaa !22
  %13 = getelementptr inbounds nuw %struct.MixContext, ptr %12, i32 0, i32 6
  %14 = load ptr, ptr %13, align 8, !tbaa !100
  store ptr %14, ptr %5, align 8, !tbaa !45
  store i32 0, ptr %6, align 4, !tbaa !24
  br label %15

15:                                               ; preds = %59, %1
  %16 = load i32, ptr %6, align 4, !tbaa !24
  %17 = load ptr, ptr %3, align 8, !tbaa !22
  %18 = getelementptr inbounds nuw %struct.MixContext, ptr %17, i32 0, i32 2
  %19 = load i32, ptr %18, align 8, !tbaa !25
  %20 = icmp slt i32 %16, %19
  br i1 %20, label %21, label %62

21:                                               ; preds = %15
  %22 = load ptr, ptr %5, align 8, !tbaa !45
  %23 = call nsz double @av_strtod(ptr noundef %22, ptr noundef %5)
  %24 = fptrunc nsz double %23 to float
  store float %24, ptr %4, align 4, !tbaa !47
  %25 = load float, ptr %4, align 4, !tbaa !47
  %26 = load ptr, ptr %3, align 8, !tbaa !22
  %27 = getelementptr inbounds nuw %struct.MixContext, ptr %26, i32 0, i32 14
  %28 = load ptr, ptr %27, align 8, !tbaa !39
  %29 = load i32, ptr %6, align 4, !tbaa !24
  %30 = sext i32 %29 to i64
  %31 = getelementptr inbounds float, ptr %28, i64 %30
  store float %25, ptr %31, align 4, !tbaa !47
  %32 = load float, ptr %4, align 4, !tbaa !47
  %33 = fcmp nsz oge float %32, 0.000000e+00
  br i1 %33, label %34, label %36

34:                                               ; preds = %21
  %35 = load float, ptr %4, align 4, !tbaa !47
  br label %39

36:                                               ; preds = %21
  %37 = load float, ptr %4, align 4, !tbaa !47
  %38 = fneg nsz float %37
  br label %39

39:                                               ; preds = %36, %34
  %40 = phi nsz float [ %35, %34 ], [ %38, %36 ]
  %41 = load ptr, ptr %3, align 8, !tbaa !22
  %42 = getelementptr inbounds nuw %struct.MixContext, ptr %41, i32 0, i32 15
  %43 = load float, ptr %42, align 8, !tbaa !46
  %44 = fadd nsz float %43, %40
  store float %44, ptr %42, align 8, !tbaa !46
  %45 = load ptr, ptr %5, align 8, !tbaa !45
  %46 = icmp ne ptr %45, null
  br i1 %46, label %47, label %55

47:                                               ; preds = %39
  %48 = load ptr, ptr %5, align 8, !tbaa !45
  %49 = load i8, ptr %48, align 1, !tbaa !71
  %50 = sext i8 %49 to i32
  %51 = icmp ne i32 %50, 0
  br i1 %51, label %52, label %55

52:                                               ; preds = %47
  %53 = load ptr, ptr %5, align 8, !tbaa !45
  %54 = getelementptr inbounds nuw i8, ptr %53, i32 1
  store ptr %54, ptr %5, align 8, !tbaa !45
  br label %58

55:                                               ; preds = %47, %39
  %56 = load i32, ptr %6, align 4, !tbaa !24
  %57 = add nsw i32 %56, 1
  store i32 %57, ptr %6, align 4, !tbaa !24
  br label %62

58:                                               ; preds = %52
  br label %59

59:                                               ; preds = %58
  %60 = load i32, ptr %6, align 4, !tbaa !24
  %61 = add nsw i32 %60, 1
  store i32 %61, ptr %6, align 4, !tbaa !24
  br label %15, !llvm.loop !101

62:                                               ; preds = %55, %15
  br label %63

63:                                               ; preds = %90, %62
  %64 = load i32, ptr %6, align 4, !tbaa !24
  %65 = load ptr, ptr %3, align 8, !tbaa !22
  %66 = getelementptr inbounds nuw %struct.MixContext, ptr %65, i32 0, i32 2
  %67 = load i32, ptr %66, align 8, !tbaa !25
  %68 = icmp slt i32 %64, %67
  br i1 %68, label %69, label %93

69:                                               ; preds = %63
  %70 = load float, ptr %4, align 4, !tbaa !47
  %71 = load ptr, ptr %3, align 8, !tbaa !22
  %72 = getelementptr inbounds nuw %struct.MixContext, ptr %71, i32 0, i32 14
  %73 = load ptr, ptr %72, align 8, !tbaa !39
  %74 = load i32, ptr %6, align 4, !tbaa !24
  %75 = sext i32 %74 to i64
  %76 = getelementptr inbounds float, ptr %73, i64 %75
  store float %70, ptr %76, align 4, !tbaa !47
  %77 = load float, ptr %4, align 4, !tbaa !47
  %78 = fcmp nsz oge float %77, 0.000000e+00
  br i1 %78, label %79, label %81

79:                                               ; preds = %69
  %80 = load float, ptr %4, align 4, !tbaa !47
  br label %84

81:                                               ; preds = %69
  %82 = load float, ptr %4, align 4, !tbaa !47
  %83 = fneg nsz float %82
  br label %84

84:                                               ; preds = %81, %79
  %85 = phi nsz float [ %80, %79 ], [ %83, %81 ]
  %86 = load ptr, ptr %3, align 8, !tbaa !22
  %87 = getelementptr inbounds nuw %struct.MixContext, ptr %86, i32 0, i32 15
  %88 = load float, ptr %87, align 8, !tbaa !46
  %89 = fadd nsz float %88, %85
  store float %89, ptr %87, align 8, !tbaa !46
  br label %90

90:                                               ; preds = %84
  %91 = load i32, ptr %6, align 4, !tbaa !24
  %92 = add nsw i32 %91, 1
  store i32 %92, ptr %6, align 4, !tbaa !24
  br label %63, !llvm.loop !102

93:                                               ; preds = %63
  call void @llvm.lifetime.end.p0(i64 4, ptr %6) #9
  call void @llvm.lifetime.end.p0(i64 8, ptr %5) #9
  call void @llvm.lifetime.end.p0(i64 4, ptr %4) #9
  call void @llvm.lifetime.end.p0(i64 8, ptr %3) #9
  ret void
}

; Function Attrs: nounwind uwtable
define internal i32 @process_command(ptr noundef %0, ptr noundef %1, ptr noundef %2, ptr noundef %3, i32 noundef %4, i32 noundef %5) #1 {
  %7 = alloca i32, align 4
  %8 = alloca ptr, align 8
  %9 = alloca ptr, align 8
  %10 = alloca ptr, align 8
  %11 = alloca ptr, align 8
  %12 = alloca i32, align 4
  %13 = alloca i32, align 4
  %14 = alloca ptr, align 8
  %15 = alloca i32, align 4
  %16 = alloca i32, align 4
  %17 = alloca i32, align 4
  store ptr %0, ptr %8, align 8, !tbaa !4
  store ptr %1, ptr %9, align 8, !tbaa !45
  store ptr %2, ptr %10, align 8, !tbaa !45
  store ptr %3, ptr %11, align 8, !tbaa !45
  store i32 %4, ptr %12, align 4, !tbaa !24
  store i32 %5, ptr %13, align 4, !tbaa !24
  call void @llvm.lifetime.start.p0(i64 8, ptr %14) #9
  %18 = load ptr, ptr %8, align 8, !tbaa !4
  %19 = getelementptr inbounds nuw %struct.AVFilterContext, ptr %18, i32 0, i32 9
  %20 = load ptr, ptr %19, align 8, !tbaa !9
  store ptr %20, ptr %14, align 8, !tbaa !22
  call void @llvm.lifetime.start.p0(i64 4, ptr %15) #9
  %21 = load ptr, ptr %8, align 8, !tbaa !4
  %22 = load ptr, ptr %9, align 8, !tbaa !45
  %23 = load ptr, ptr %10, align 8, !tbaa !45
  %24 = load ptr, ptr %11, align 8, !tbaa !45
  %25 = load i32, ptr %12, align 4, !tbaa !24
  %26 = load i32, ptr %13, align 4, !tbaa !24
  %27 = call i32 @ff_filter_process_command(ptr noundef %21, ptr noundef %22, ptr noundef %23, ptr noundef %24, i32 noundef %25, i32 noundef %26)
  store i32 %27, ptr %15, align 4, !tbaa !24
  %28 = load i32, ptr %15, align 4, !tbaa !24
  %29 = icmp slt i32 %28, 0
  br i1 %29, label %30, label %32

30:                                               ; preds = %6
  %31 = load i32, ptr %15, align 4, !tbaa !24
  store i32 %31, ptr %7, align 4
  store i32 1, ptr %16, align 4
  br label %84

32:                                               ; preds = %6
  %33 = load ptr, ptr %8, align 8, !tbaa !4
  call void @parse_weights(ptr noundef %33)
  call void @llvm.lifetime.start.p0(i64 4, ptr %17) #9
  store i32 0, ptr %17, align 4, !tbaa !24
  br label %34

34:                                               ; preds = %79, %32
  %35 = load i32, ptr %17, align 4, !tbaa !24
  %36 = load ptr, ptr %14, align 8, !tbaa !22
  %37 = getelementptr inbounds nuw %struct.MixContext, ptr %36, i32 0, i32 2
  %38 = load i32, ptr %37, align 8, !tbaa !25
  %39 = icmp slt i32 %35, %38
  br i1 %39, label %41, label %40

40:                                               ; preds = %34
  store i32 2, ptr %16, align 4
  call void @llvm.lifetime.end.p0(i64 4, ptr %17) #9
  br label %82

41:                                               ; preds = %34
  %42 = load ptr, ptr %14, align 8, !tbaa !22
  %43 = getelementptr inbounds nuw %struct.MixContext, ptr %42, i32 0, i32 15
  %44 = load float, ptr %43, align 8, !tbaa !46
  %45 = load ptr, ptr %14, align 8, !tbaa !22
  %46 = getelementptr inbounds nuw %struct.MixContext, ptr %45, i32 0, i32 14
  %47 = load ptr, ptr %46, align 8, !tbaa !39
  %48 = load i32, ptr %17, align 4, !tbaa !24
  %49 = sext i32 %48 to i64
  %50 = getelementptr inbounds float, ptr %47, i64 %49
  %51 = load float, ptr %50, align 4, !tbaa !47
  %52 = fcmp nsz oge float %51, 0.000000e+00
  br i1 %52, label %53, label %61

53:                                               ; preds = %41
  %54 = load ptr, ptr %14, align 8, !tbaa !22
  %55 = getelementptr inbounds nuw %struct.MixContext, ptr %54, i32 0, i32 14
  %56 = load ptr, ptr %55, align 8, !tbaa !39
  %57 = load i32, ptr %17, align 4, !tbaa !24
  %58 = sext i32 %57 to i64
  %59 = getelementptr inbounds float, ptr %56, i64 %58
  %60 = load float, ptr %59, align 4, !tbaa !47
  br label %70

61:                                               ; preds = %41
  %62 = load ptr, ptr %14, align 8, !tbaa !22
  %63 = getelementptr inbounds nuw %struct.MixContext, ptr %62, i32 0, i32 14
  %64 = load ptr, ptr %63, align 8, !tbaa !39
  %65 = load i32, ptr %17, align 4, !tbaa !24
  %66 = sext i32 %65 to i64
  %67 = getelementptr inbounds float, ptr %64, i64 %66
  %68 = load float, ptr %67, align 4, !tbaa !47
  %69 = fneg nsz float %68
  br label %70

70:                                               ; preds = %61, %53
  %71 = phi nsz float [ %60, %53 ], [ %69, %61 ]
  %72 = fdiv nsz float %44, %71
  %73 = load ptr, ptr %14, align 8, !tbaa !22
  %74 = getelementptr inbounds nuw %struct.MixContext, ptr %73, i32 0, i32 16
  %75 = load ptr, ptr %74, align 8, !tbaa !48
  %76 = load i32, ptr %17, align 4, !tbaa !24
  %77 = sext i32 %76 to i64
  %78 = getelementptr inbounds float, ptr %75, i64 %77
  store float %72, ptr %78, align 4, !tbaa !47
  br label %79

79:                                               ; preds = %70
  %80 = load i32, ptr %17, align 4, !tbaa !24
  %81 = add nsw i32 %80, 1
  store i32 %81, ptr %17, align 4, !tbaa !24
  br label %34, !llvm.loop !49

82:                                               ; preds = %40
  %83 = load ptr, ptr %14, align 8, !tbaa !22
  call void @calculate_scales(ptr noundef %83, i32 noundef 0)
  store i32 0, ptr %7, align 4
  store i32 1, ptr %16, align 4
  br label %84

84:                                               ; preds = %82, %30
  call void @llvm.lifetime.end.p0(i64 4, ptr %15) #9
  call void @llvm.lifetime.end.p0(i64 8, ptr %14) #9
  %85 = load i32, ptr %7, align 4
  ret i32 %85
}