; Function Attrs: nounwind uwtable
define internal range(i32 -2147483648, 1) i32 @process_command(ptr noundef %0, ptr noundef %1, ptr noundef %2, ptr noundef %3, i32 noundef %4, i32 noundef %5) #1 {
  %7 = alloca ptr, align 8
  %8 = getelementptr inbounds nuw i8, ptr %0, i64 72
  %9 = load ptr, ptr %8, align 8, !tbaa !4
  %10 = tail call i32 @ff_filter_process_command(ptr noundef %0, ptr noundef %1, ptr noundef %2, ptr noundef %3, i32 noundef %4, i32 noundef %5) #9
  %11 = icmp slt i32 %10, 0
  br i1 %11, label %72, label %12

12:                                               ; preds = %6
  %.val = load ptr, ptr %8, align 8, !tbaa !4
  call void @llvm.lifetime.start.p0(i64 8, ptr nonnull %7) #9
  %13 = getelementptr inbounds nuw i8, ptr %.val, i64 88
  store float 0.000000e+00, ptr %13, align 8, !tbaa !35
  %14 = getelementptr inbounds nuw i8, ptr %.val, i64 32
  %15 = load ptr, ptr %14, align 8, !tbaa !36
  store ptr %15, ptr %7, align 8, !tbaa !37
  %16 = getelementptr inbounds nuw i8, ptr %.val, i64 16
  %17 = load i32, ptr %16, align 8, !tbaa !20
  %18 = icmp sgt i32 %17, 0
  br i1 %18, label %.lr.ph.i, label %.loopexit.i

.lr.ph.i:                                         ; preds = %12
  %19 = getelementptr inbounds nuw i8, ptr %.val, i64 80
  br label %20

20:                                               ; preds = %34, %.lr.ph.i
  %21 = phi ptr [ %15, %.lr.ph.i ], [ %35, %34 ]
  %indvars.iv.i = phi i64 [ 0, %.lr.ph.i ], [ %indvars.iv.next.i, %34 ]
  %22 = call nsz double @av_strtod(ptr noundef %21, ptr noundef nonnull %7) #9
  %23 = fptrunc nsz double %22 to float
  %24 = load ptr, ptr %19, align 8, !tbaa !34
  %25 = getelementptr inbounds nuw float, ptr %24, i64 %indvars.iv.i
  store float %23, ptr %25, align 4, !tbaa !38
  %26 = fcmp nsz oge float %23, 0.000000e+00
  %27 = fneg nsz float %23
  %28 = select nsz i1 %26, float %23, float %27
  %29 = load float, ptr %13, align 8, !tbaa !35
  %30 = fadd nsz float %29, %28
  store float %30, ptr %13, align 8, !tbaa !35
  %31 = load ptr, ptr %7, align 8, !tbaa !37
  %.not.i = icmp eq ptr %31, null
  br i1 %.not.i, label %39, label %32

32:                                               ; preds = %20
  %33 = load i8, ptr %31, align 1, !tbaa !39
  %.not26.i = icmp eq i8 %33, 0
  br i1 %.not26.i, label %39, label %34

34:                                               ; preds = %32
  %35 = getelementptr inbounds nuw i8, ptr %31, i64 1
  store ptr %35, ptr %7, align 8, !tbaa !37
  %indvars.iv.next.i = add nuw nsw i64 %indvars.iv.i, 1
  %36 = load i32, ptr %16, align 8, !tbaa !20
  %37 = sext i32 %36 to i64
  %38 = icmp slt i64 %indvars.iv.next.i, %37
  br i1 %38, label %20, label %.loopexit.loopexit.i, !llvm.loop !40

39:                                               ; preds = %32, %20
  %40 = trunc nuw nsw i64 %indvars.iv.i to i32
  %41 = add nuw nsw i32 %40, 1
  %.pre.i = load i32, ptr %16, align 8, !tbaa !20
  br label %.loopexit.i

.loopexit.loopexit.i:                             ; preds = %34
  %42 = trunc nuw nsw i64 %indvars.iv.next.i to i32
  br label %.loopexit.i

.loopexit.i:                                      ; preds = %.loopexit.loopexit.i, %39, %12
  %43 = phi i32 [ %.pre.i, %39 ], [ %17, %12 ], [ %36, %.loopexit.loopexit.i ]
  %.124.i = phi nsz float [ %23, %39 ], [ 1.000000e+00, %12 ], [ %23, %.loopexit.loopexit.i ]
  %.1.i = phi i32 [ %41, %39 ], [ 0, %12 ], [ %42, %.loopexit.loopexit.i ]
  %44 = icmp slt i32 %.1.i, %43
  br i1 %44, label %.lr.ph8.i, label %parse_weights.exit

.lr.ph8.i:                                        ; preds = %.loopexit.i
  %45 = getelementptr inbounds nuw i8, ptr %.val, i64 80
  %46 = load ptr, ptr %45, align 8, !tbaa !34
  %47 = fcmp nsz oge float %.124.i, 0.000000e+00
  %48 = fneg nsz float %.124.i
  %49 = select nsz i1 %47, float %.124.i, float %48
  %50 = zext nneg i32 %.1.i to i64
  %wide.trip.count.i = zext i32 %43 to i64
  br label %51

51:                                               ; preds = %51, %.lr.ph8.i
  %indvars.iv13.i = phi i64 [ %50, %.lr.ph8.i ], [ %indvars.iv.next14.i, %51 ]
  %52 = getelementptr inbounds nuw float, ptr %46, i64 %indvars.iv13.i
  store float %.124.i, ptr %52, align 4, !tbaa !38
  %53 = load float, ptr %13, align 8, !tbaa !35
  %54 = fadd nsz float %49, %53
  store float %54, ptr %13, align 8, !tbaa !35
  %indvars.iv.next14.i = add nuw nsw i64 %indvars.iv13.i, 1
  %exitcond.not.i = icmp eq i64 %indvars.iv.next14.i, %wide.trip.count.i
  br i1 %exitcond.not.i, label %parse_weights.exit, label %51, !llvm.loop !41

parse_weights.exit:                               ; preds = %51, %.loopexit.i
  call void @llvm.lifetime.end.p0(i64 8, ptr nonnull %7) #9
  %55 = getelementptr inbounds nuw i8, ptr %9, i64 16
  %56 = load i32, ptr %55, align 8, !tbaa !20
  %57 = icmp sgt i32 %56, 0
  br i1 %57, label %.lr.ph, label %._crit_edge

.lr.ph:                                           ; preds = %parse_weights.exit
  %58 = getelementptr inbounds nuw i8, ptr %9, i64 88
  %59 = getelementptr inbounds nuw i8, ptr %9, i64 80
  %60 = load ptr, ptr %59, align 8, !tbaa !34
  %61 = getelementptr inbounds nuw i8, ptr %9, i64 96
  %62 = load ptr, ptr %61, align 8, !tbaa !56
  %wide.trip.count = zext nneg i32 %56 to i64
  br label %63

._crit_edge:                                      ; preds = %63, %parse_weights.exit
  call fastcc void @calculate_scales(ptr noundef nonnull %9, i32 noundef 0)
  br label %72

63:                                               ; preds = %.lr.ph, %63
  %indvars.iv = phi i64 [ 0, %.lr.ph ], [ %indvars.iv.next, %63 ]
  %64 = load float, ptr %58, align 8, !tbaa !35
  %65 = getelementptr inbounds nuw float, ptr %60, i64 %indvars.iv
  %66 = load float, ptr %65, align 4, !tbaa !38
  %67 = fcmp nsz ult float %66, 0.000000e+00
  %68 = fneg nsz float %66
  %69 = select nsz i1 %67, float %68, float %66
  %70 = fdiv nsz float %64, %69
  %71 = getelementptr inbounds nuw float, ptr %62, i64 %indvars.iv
  store float %70, ptr %71, align 4, !tbaa !38
  %indvars.iv.next = add nuw nsw i64 %indvars.iv, 1
  %exitcond.not = icmp eq i64 %indvars.iv.next, %wide.trip.count
  br i1 %exitcond.not, label %._crit_edge, label %63, !llvm.loop !57

72:                                               ; preds = %6, %._crit_edge
  %.023 = phi i32 [ 0, %._crit_edge ], [ %10, %6 ]
  ret i32 %.023
}